target datalayout = "e-m:e-p270:32:32-p271:32:32-p272:64:64-i64:64-i128:128-f80:128-n8:16:32:64-S128"
target triple = "x86_64-pc-linux-gnu"

%struct.GenContext_ = type { i8, ptr, ptr, ptr, ptr, ptr, ptr, ptr, ptr, ptr, ptr, ptr, ptr, ptr, ptr, ptr, ptr, ptr, ptr, ptr, ptr, ptr, ptr, ptr, ptr, ptr, ptr, ptr, ptr, ptr, ptr, ptr, ptr, %struct.anon.85, i32, i32, %struct.DebugContext, ptr, ptr, ptr, %struct.BEValue, i8, %union.SourceSpan, ptr, ptr, ptr, ptr }
%struct.anon.85 = type { ptr, ptr, ptr }
%struct.DebugContext = type { i16, ptr, ptr, %struct.DebugFile_, ptr, ptr, ptr, ptr }
%struct.DebugFile_ = type { i16, ptr }
%struct.BEValue = type { i8, i32, ptr, ptr, ptr }
%union.SourceSpan = type { i64 }
%struct.VHeader_ = type { i32, i32, [0 x i8] }
%struct.ReusableConstant_ = type { ptr, ptr, ptr }

; Function Attrs: nounwind uwtable
define internal ptr @vec_new_(i64 noundef %0, i64 noundef %1) #0 {
  %3 = alloca i64, align 8
  %4 = alloca i64, align 8
  %5 = alloca ptr, align 8
  store i64 %0, ptr %3, align 8
  store i64 %1, ptr %4, align 8
  %6 = load i64, ptr %3, align 8
  %7 = load i64, ptr %4, align 8
  %8 = mul i64 %6, %7
  %9 = add i64 %8, 8
  %10 = call ptr @calloc_arena(i64 noundef %9)
  store ptr %10, ptr %5, align 8
  %11 = load i64, ptr %4, align 8
  %12 = trunc i64 %11 to i32
  %13 = load ptr, ptr %5, align 8
  %14 = getelementptr inbounds %struct.VHeader_, ptr %13, i32 0, i32 1
  store i32 %12, ptr %14, align 4
  %15 = load ptr, ptr %5, align 8
  ret ptr %15
}

; Function Attrs: nounwind uwtable
define internal ptr @expand_(ptr noundef %0, i64 noundef %1) #0 {
  %3 = alloca ptr, align 8
  %4 = alloca i64, align 8
  %5 = alloca ptr, align 8
  %6 = alloca ptr, align 8
  %7 = alloca i64, align 8
  store ptr %0, ptr %3, align 8
  store i64 %1, ptr %4, align 8
  %8 = load ptr, ptr %3, align 8
  %9 = icmp ne ptr %8, null
  br i1 %9, label %13, label %10

10:                                               ; preds = %2
  %11 = load i64, ptr %4, align 8
  %12 = call ptr @vec_new_(i64 noundef %11, i64 noundef 8)
  store ptr %12, ptr %5, align 8
  br label %16

13:                                               ; preds = %2
  %14 = load ptr, ptr %3, align 8
  %15 = getelementptr inbounds %struct.VHeader_, ptr %14, i64 -1
  store ptr %15, ptr %5, align 8
  br label %16

16:                                               ; preds = %13, %10
  %17 = load ptr, ptr %5, align 8
  %18 = getelementptr inbounds %struct.VHeader_, ptr %17, i32 0, i32 0
  %19 = load i32, ptr %18, align 4
  %20 = load ptr, ptr %5, align 8
  %21 = getelementptr inbounds %struct.VHeader_, ptr %20, i32 0, i32 1
  %22 = load i32, ptr %21, align 4
  %23 = icmp eq i32 %19, %22
  br i1 %23, label %24, label %49

24:                                               ; preds = %16
  %25 = load i64, ptr %4, align 8
  %26 = load ptr, ptr %5, align 8
  %27 = getelementptr inbounds %struct.VHeader_, ptr %26, i32 0, i32 1
  %28 = load i32, ptr %27, align 4
  %29 = shl i32 %28, 1
  %30 = zext i32 %29 to i64
  %31 = call ptr @vec_new_(i64 noundef %25, i64 noundef %30)
  store ptr %31, ptr %6, align 8
  %32 = load i64, ptr %4, align 8
  %33 = load ptr, ptr %5, align 8
  %34 = getelementptr inbounds %struct.VHeader_, ptr %33, i32 0, i32 1
  %35 = load i32, ptr %34, align 4
  %36 = zext i32 %35 to i64
  %37 = mul i64 %32, %36
  %38 = add i64 %37, 8
  store i64 %38, ptr %7, align 8
  %39 = load ptr, ptr %6, align 8
  %40 = load ptr, ptr %5, align 8
  %41 = load i64, ptr %7, align 8
  call void @llvm.memcpy.p0.p0.i64(ptr align 4 %39, ptr align 4 %40, i64 %41, i1 false)
  %42 = load ptr, ptr %6, align 8
  store ptr %42, ptr %5, align 8
  %43 = load ptr, ptr %5, align 8
  %44 = getelementptr inbounds %struct.VHeader_, ptr %43, i32 0, i32 1
  %45 = load i32, ptr %44, align 4
  %46 = shl i32 %45, 1
  %47 = load ptr, ptr %6, align 8
  %48 = getelementptr inbounds %struct.VHeader_, ptr %47, i32 0, i32 1
  store i32 %46, ptr %48, align 4
  br label %49

49:                                               ; preds = %24, %16
  %50 = load ptr, ptr %5, align 8
  %51 = getelementptr inbounds %struct.VHeader_, ptr %50, i32 0, i32 0
  %52 = load i32, ptr %51, align 4
  %53 = add i32 %52, 1
  store i32 %53, ptr %51, align 4
  %54 = load ptr, ptr %5, align 8
  %55 = getelementptr inbounds %struct.VHeader_, ptr %54, i64 1
  ret ptr %55
}

; Function Attrs: nounwind uwtable
define dso_local ptr @llvm_emit_zstring_named(ptr noundef %0, ptr noundef %1, ptr noundef %2) #0 {
  %4 = alloca ptr, align 8
  %5 = alloca ptr, align 8
  %6 = alloca i64, align 8
  %7 = alloca ptr, align 8
  %8 = alloca ptr, align 8
  %9 = alloca ptr, align 8
  %10 = alloca i32, align 4
  %11 = alloca ptr, align 8
  %12 = alloca i32, align 4
  %13 = alloca ptr, align 8
  %14 = alloca ptr, align 8
  %15 = alloca i32, align 4
  %16 = alloca ptr, align 8
  %17 = alloca ptr, align 8
  %18 = alloca ptr, align 8
  %19 = alloca ptr, align 8
  %20 = alloca ptr, align 8
  %21 = alloca ptr, align 8
  %22 = alloca i32, align 4
  %23 = alloca i32, align 4
  %24 = alloca i32, align 4
  %25 = alloca ptr, align 8
  %26 = alloca ptr, align 8
  %27 = alloca i32, align 4
  %28 = alloca ptr, align 8
  %29 = alloca %struct.ReusableConstant_, align 8
  %30 = alloca ptr, align 8
  store ptr %0, ptr %19, align 8
  store ptr %1, ptr %20, align 8
  store ptr %2, ptr %21, align 8
  store i32 0, ptr %22, align 4
  %31 = load ptr, ptr %19, align 8
  %32 = getelementptr inbounds %struct.GenContext_, ptr %31, i32 0, i32 15
  %33 = load ptr, ptr %32, align 8
  store ptr %33, ptr %13, align 8
  %34 = load ptr, ptr %13, align 8
  %35 = icmp ne ptr %34, null
  br i1 %35, label %37, label %36

36:                                               ; preds = %3
  store i32 0, ptr %12, align 4
  br label %42

37:                                               ; preds = %3
  %38 = load ptr, ptr %13, align 8
  store ptr %38, ptr %14, align 8
  %39 = load ptr, ptr %14, align 8
  %40 = getelementptr inbounds %struct.VHeader_, ptr %39, i64 -1
  %41 = load i32, ptr %40, align 4
  store i32 %41, ptr %12, align 4
  br label %42

42:                                               ; preds = %37, %36
  %43 = load i32, ptr %12, align 4
  store i32 %43, ptr %23, align 4
  br label %44

44:                                               ; preds = %82, %42
  %45 = load i32, ptr %22, align 4
  %46 = load i32, ptr %23, align 4
  %47 = icmp ult i32 %45, %46
  br i1 %47, label %48, label %85

48:                                               ; preds = %44
  %49 = load ptr, ptr %20, align 8
  %50 = load ptr, ptr %19, align 8
  %51 = getelementptr inbounds %struct.GenContext_, ptr %50, i32 0, i32 15
  %52 = load ptr, ptr %51, align 8
  %53 = load i32, ptr %22, align 4
  %54 = zext i32 %53 to i64
  %55 = getelementptr inbounds %struct.ReusableConstant_, ptr %52, i64 %54
  %56 = getelementptr inbounds %struct.ReusableConstant_, ptr %55, i32 0, i32 0
  %57 = load ptr, ptr %56, align 8
  %58 = call i32 @strcmp(ptr noundef %49, ptr noundef %57) #9
  %59 = icmp eq i32 %58, 0
  br i1 %59, label %60, label %81

60:                                               ; preds = %48
  %61 = load ptr, ptr %21, align 8
  %62 = load ptr, ptr %19, align 8
  %63 = getelementptr inbounds %struct.GenContext_, ptr %62, i32 0, i32 15
  %64 = load ptr, ptr %63, align 8
  %65 = load i32, ptr %22, align 4
  %66 = zext i32 %65 to i64
  %67 = getelementptr inbounds %struct.ReusableConstant_, ptr %64, i64 %66
  %68 = getelementptr inbounds %struct.ReusableConstant_, ptr %67, i32 0, i32 1
  %69 = load ptr, ptr %68, align 8
  %70 = call i32 @strcmp(ptr noundef %61, ptr noundef %69) #9
  %71 = icmp eq i32 %70, 0
  br i1 %71, label %72, label %81

72:                                               ; preds = %60
  %73 = load ptr, ptr %19, align 8
  %74 = getelementptr inbounds %struct.GenContext_, ptr %73, i32 0, i32 15
  %75 = load ptr, ptr %74, align 8
  %76 = load i32, ptr %22, align 4
  %77 = zext i32 %76 to i64
  %78 = getelementptr inbounds %struct.ReusableConstant_, ptr %75, i64 %77
  %79 = getelementptr inbounds %struct.ReusableConstant_, ptr %78, i32 0, i32 2
  %80 = load ptr, ptr %79, align 8
  store ptr %80, ptr %18, align 8
  br label %177

81:                                               ; preds = %60, %48
  br label %82

82:                                               ; preds = %81
  %83 = load i32, ptr %22, align 4
  %84 = add i32 %83, 1
  store i32 %84, ptr %22, align 4
  br label %44, !llvm.loop !21

85:                                               ; preds = %44
  %86 = load ptr, ptr %20, align 8
  %87 = call i64 @strlen(ptr noundef %86) #9
  %88 = trunc i64 %87 to i32
  store i32 %88, ptr %24, align 4
  %89 = load ptr, ptr %19, align 8
  %90 = getelementptr inbounds %struct.GenContext_, ptr %89, i32 0, i32 21
  %91 = load ptr, ptr %90, align 8
  %92 = load i32, ptr %24, align 4
  %93 = add i32 %92, 1
  %94 = call ptr @LLVMArrayType(ptr noundef %91, i32 noundef %93)
  store ptr %94, ptr %25, align 8
  %95 = load ptr, ptr %19, align 8
  %96 = load ptr, ptr %21, align 8
  %97 = load ptr, ptr %25, align 8
  store ptr %95, ptr %7, align 8
  store ptr %96, ptr %8, align 8
  store ptr %97, ptr %9, align 8
  store i32 0, ptr %10, align 4
  %98 = load ptr, ptr %7, align 8
  %99 = getelementptr inbounds %struct.GenContext_, ptr %98, i32 0, i32 1
  %100 = load ptr, ptr %99, align 8
  %101 = load ptr, ptr %9, align 8
  %102 = load ptr, ptr %8, align 8
  %103 = call ptr @LLVMAddGlobal(ptr noundef %100, ptr noundef %101, ptr noundef %102) #7
  store ptr %103, ptr %11, align 8
  %104 = load ptr, ptr %11, align 8
  %105 = load i32, ptr %10, align 4
  %106 = icmp ne i32 %105, 0
  br i1 %106, label %107, label %109

107:                                              ; preds = %85
  %108 = load i32, ptr %10, align 4
  br label %115

109:                                              ; preds = %85
  %110 = load ptr, ptr %7, align 8
  %111 = getelementptr inbounds %struct.GenContext_, ptr %110, i32 0, i32 4
  %112 = load ptr, ptr %111, align 8
  %113 = load ptr, ptr %11, align 8
  %114 = call i32 @LLVMPreferredAlignmentOfGlobal(ptr noundef %112, ptr noundef %113) #7
  br label %115

115:                                              ; preds = %109, %107
  %116 = phi i32 [ %108, %107 ], [ %114, %109 ]
  call void @LLVMSetAlignment(ptr noundef %104, i32 noundef %116) #7
  %117 = load ptr, ptr %11, align 8
  store ptr %117, ptr %26, align 8
  %118 = load ptr, ptr %26, align 8
  call void @llvm_set_internal_linkage(ptr noundef %118)
  %119 = load ptr, ptr %26, align 8
  call void @LLVMSetGlobalConstant(ptr noundef %119, i32 noundef 1)
  %120 = load ptr, ptr %26, align 8
  %121 = load ptr, ptr %19, align 8
  %122 = load ptr, ptr %20, align 8
  %123 = load i32, ptr %24, align 4
  %124 = zext i32 %123 to i64
  store ptr %121, ptr %4, align 8
  store ptr %122, ptr %5, align 8
  store i64 %124, ptr %6, align 8
  %125 = load ptr, ptr %4, align 8
  %126 = getelementptr inbounds %struct.GenContext_, ptr %125, i32 0, i32 5
  %127 = load ptr, ptr %126, align 8
  %128 = load ptr, ptr %5, align 8
  %129 = load i64, ptr %6, align 8
  %130 = trunc i64 %129 to i32
  %131 = call ptr @LLVMConstStringInContext(ptr noundef %127, ptr noundef %128, i32 noundef %130, i32 noundef 0) #7
  call void @LLVMSetInitializer(ptr noundef %120, ptr noundef %131)
  %132 = load ptr, ptr %19, align 8
  %133 = load ptr, ptr %26, align 8
  %134 = load ptr, ptr %25, align 8
  %135 = call ptr @llvm_emit_array_gep_raw(ptr noundef %132, ptr noundef %133, ptr noundef %134, i32 noundef 0, i32 noundef 1, ptr noundef %27)
  store ptr %135, ptr %28, align 8
  %136 = getelementptr inbounds %struct.ReusableConstant_, ptr %29, i32 0, i32 0
  %137 = load ptr, ptr %20, align 8
  %138 = load i32, ptr %24, align 4
  %139 = zext i32 %138 to i64
  %140 = call ptr @str_copy(ptr noundef %137, i64 noundef %139)
  store ptr %140, ptr %136, align 8
  %141 = getelementptr inbounds %struct.ReusableConstant_, ptr %29, i32 0, i32 1
  %142 = load ptr, ptr %21, align 8
  %143 = load ptr, ptr %21, align 8
  %144 = call i64 @strlen(ptr noundef %143) #9
  %145 = call ptr @str_copy(ptr noundef %142, i64 noundef %144)
  store ptr %145, ptr %141, align 8
  %146 = getelementptr inbounds %struct.ReusableConstant_, ptr %29, i32 0, i32 2
  %147 = load ptr, ptr %28, align 8
  store ptr %147, ptr %146, align 8
  br label %148

148:                                              ; preds = %115
  %149 = load ptr, ptr %19, align 8
  %150 = getelementptr inbounds %struct.GenContext_, ptr %149, i32 0, i32 15
  %151 = load ptr, ptr %150, align 8
  %152 = call ptr @expand_(ptr noundef %151, i64 noundef 24)
  store ptr %152, ptr %30, align 8
  %153 = load ptr, ptr %30, align 8
  %154 = load ptr, ptr %19, align 8
  %155 = getelementptr inbounds %struct.GenContext_, ptr %154, i32 0, i32 15
  store ptr %153, ptr %155, align 8
  %156 = load ptr, ptr %19, align 8
  %157 = getelementptr inbounds %struct.GenContext_, ptr %156, i32 0, i32 15
  %158 = load ptr, ptr %157, align 8
  %159 = load ptr, ptr %19, align 8
  %160 = getelementptr inbounds %struct.GenContext_, ptr %159, i32 0, i32 15
  %161 = load ptr, ptr %160, align 8
  store ptr %161, ptr %16, align 8
  %162 = load ptr, ptr %16, align 8
  %163 = icmp ne ptr %162, null
  br i1 %163, label %165, label %164

164:                                              ; preds = %148
  store i32 0, ptr %15, align 4
  br label %170

165:                                              ; preds = %148
  %166 = load ptr, ptr %16, align 8
  store ptr %166, ptr %17, align 8
  %167 = load ptr, ptr %17, align 8
  %168 = getelementptr inbounds %struct.VHeader_, ptr %167, i64 -1
  %169 = load i32, ptr %168, align 4
  store i32 %169, ptr %15, align 4
  br label %170

170:                                              ; preds = %165, %164
  %171 = load i32, ptr %15, align 4
  %172 = sub i32 %171, 1
  %173 = zext i32 %172 to i64
  %174 = getelementptr inbounds %struct.ReusableConstant_, ptr %158, i64 %173
  call void @llvm.memcpy.p0.p0.i64(ptr align 8 %174, ptr align 8 %29, i64 24, i1 false)
  br label %175

175:                                              ; preds = %170
  %176 = load ptr, ptr %28, align 8
  store ptr %176, ptr %18, align 8
  br label %177

177:                                              ; preds = %175, %72
  %178 = load ptr, ptr %18, align 8
  ret ptr %178
}