; Function Attrs: nounwind uwtable
define dso_local ptr @llvm_emit_zstring_named(ptr noundef %0, ptr noundef %1, ptr noundef %2) local_unnamed_addr #0 {
  %4 = alloca i32, align 4
  %5 = getelementptr inbounds i8, ptr %0, i64 120
  %6 = load ptr, ptr %5, align 8
  %.not = icmp eq ptr %6, null
  br i1 %.not, label %._crit_edge, label %7

7:                                                ; preds = %3
  %8 = getelementptr inbounds i8, ptr %6, i64 -8
  %9 = load i32, ptr %8, align 4
  %.not65 = icmp eq i32 %9, 0
  br i1 %.not65, label %._crit_edge, label %.lr.ph.preheader

.lr.ph.preheader:                                 ; preds = %7
  %wide.trip.count = zext i32 %9 to i64
  br label %.lr.ph

.lr.ph:                                           ; preds = %.lr.ph.preheader, %22
  %indvars.iv = phi i64 [ 0, %.lr.ph.preheader ], [ %indvars.iv.next, %22 ]
  %10 = getelementptr inbounds %struct.ReusableConstant_, ptr %6, i64 %indvars.iv
  %11 = load ptr, ptr %10, align 8
  %12 = tail call i32 @strcmp(ptr noundef nonnull dereferenceable(1) %1, ptr noundef nonnull dereferenceable(1) %11) #11
  %13 = icmp eq i32 %12, 0
  br i1 %13, label %14, label %22

14:                                               ; preds = %.lr.ph
  %15 = getelementptr inbounds i8, ptr %10, i64 8
  %16 = load ptr, ptr %15, align 8
  %17 = tail call i32 @strcmp(ptr noundef nonnull dereferenceable(1) %2, ptr noundef nonnull dereferenceable(1) %16) #11
  %18 = icmp eq i32 %17, 0
  br i1 %18, label %19, label %22

19:                                               ; preds = %14
  %20 = getelementptr inbounds i8, ptr %10, i64 16
  %21 = load ptr, ptr %20, align 8
  br label %75

22:                                               ; preds = %.lr.ph, %14
  %indvars.iv.next = add nuw nsw i64 %indvars.iv, 1
  %exitcond.not = icmp eq i64 %indvars.iv.next, %wide.trip.count
  br i1 %exitcond.not, label %._crit_edge, label %.lr.ph, !llvm.loop !28

._crit_edge:                                      ; preds = %22, %3, %7
  %23 = tail call i64 @strlen(ptr noundef nonnull dereferenceable(1) %1) #11
  %24 = trunc i64 %23 to i32
  %25 = getelementptr inbounds i8, ptr %0, i64 168
  %26 = load ptr, ptr %25, align 8
  %27 = add i32 %24, 1
  %28 = tail call ptr @LLVMArrayType(ptr noundef %26, i32 noundef %27) #9
  %29 = getelementptr inbounds i8, ptr %0, i64 8
  %30 = load ptr, ptr %29, align 8
  %31 = tail call ptr @LLVMAddGlobal(ptr noundef %30, ptr noundef %28, ptr noundef %2) #9
  %32 = getelementptr inbounds i8, ptr %0, i64 32
  %33 = load ptr, ptr %32, align 8
  %34 = tail call i32 @LLVMPreferredAlignmentOfGlobal(ptr noundef %33, ptr noundef %31) #9
  tail call void @LLVMSetAlignment(ptr noundef %31, i32 noundef %34) #9
  tail call void @llvm_set_internal_linkage(ptr noundef %31) #9
  tail call void @LLVMSetGlobalConstant(ptr noundef %31, i32 noundef 1) #9
  %35 = and i64 %23, 4294967295
  %36 = getelementptr inbounds i8, ptr %0, i64 40
  %37 = load ptr, ptr %36, align 8
  %38 = tail call ptr @LLVMConstStringInContext(ptr noundef %37, ptr noundef %1, i32 noundef %24, i32 noundef 0) #9
  tail call void @LLVMSetInitializer(ptr noundef %31, ptr noundef %38) #9
  %39 = call ptr @llvm_emit_array_gep_raw(ptr noundef %0, ptr noundef %31, ptr noundef %28, i32 noundef 0, i32 noundef 1, ptr noundef nonnull %4) #9
  %40 = call ptr @str_copy(ptr noundef %1, i64 noundef %35) #9
  %41 = call i64 @strlen(ptr noundef nonnull dereferenceable(1) %2) #11
  %42 = call ptr @str_copy(ptr noundef %2, i64 noundef %41) #9
  %43 = load ptr, ptr %5, align 8
  %.not.i = icmp eq ptr %43, null
  br i1 %.not.i, label %44, label %47

44:                                               ; preds = %._crit_edge
  %45 = call ptr @calloc_arena(i64 noundef 200) #9
  %46 = getelementptr inbounds i8, ptr %45, i64 4
  store i32 8, ptr %46, align 4
  br label %49

47:                                               ; preds = %._crit_edge
  %48 = getelementptr inbounds i8, ptr %43, i64 -8
  %.phi.trans.insert.i = getelementptr inbounds i8, ptr %43, i64 -4
  %.pre.i = load i32, ptr %.phi.trans.insert.i, align 4
  br label %49

49:                                               ; preds = %47, %44
  %50 = phi i32 [ %.pre.i, %47 ], [ 8, %44 ]
  %.0.i = phi ptr [ %48, %47 ], [ %45, %44 ]
  %51 = load i32, ptr %.0.i, align 4
  %52 = icmp eq i32 %51, %50
  br i1 %52, label %53, label %67

53:                                               ; preds = %49
  %54 = getelementptr inbounds i8, ptr %.0.i, i64 4
  %55 = shl i32 %50, 1
  %56 = zext i32 %55 to i64
  %57 = mul nuw nsw i64 %56, 24
  %58 = or disjoint i64 %57, 8
  %59 = call ptr @calloc_arena(i64 noundef %58) #9
  %60 = getelementptr inbounds i8, ptr %59, i64 4
  store i32 %55, ptr %60, align 4
  %61 = load i32, ptr %54, align 4
  %62 = zext i32 %61 to i64
  %63 = mul nuw nsw i64 %62, 24
  %64 = add nuw nsw i64 %63, 8
  call void @llvm.memcpy.p0.p0.i64(ptr noundef nonnull align 4 dereferenceable(1) %59, ptr noundef nonnull align 4 dereferenceable(1) %.0.i, i64 %64, i1 false)
  %65 = load i32, ptr %60, align 4
  %66 = shl i32 %65, 1
  store i32 %66, ptr %60, align 4
  %.pre18.i = load i32, ptr %59, align 4
  br label %67

67:                                               ; preds = %49, %53
  %68 = phi i32 [ %.pre18.i, %53 ], [ %51, %49 ]
  %.1.i = phi ptr [ %59, %53 ], [ %.0.i, %49 ]
  %69 = add i32 %68, 1
  store i32 %69, ptr %.1.i, align 4
  %70 = getelementptr inbounds i8, ptr %.1.i, i64 8
  store ptr %70, ptr %5, align 8
  %71 = load i32, ptr %.1.i, align 4
  %72 = add i32 %71, -1
  %73 = zext i32 %72 to i64
  %74 = getelementptr inbounds %struct.ReusableConstant_, ptr %70, i64 %73
  store ptr %40, ptr %74, align 8
  %.sroa.2.0..sroa_idx = getelementptr inbounds i8, ptr %74, i64 8
  store ptr %42, ptr %.sroa.2.0..sroa_idx, align 8
  %.sroa.3.0..sroa_idx = getelementptr inbounds i8, ptr %74, i64 16
  store ptr %39, ptr %.sroa.3.0..sroa_idx, align 8
  br label %75

75:                                               ; preds = %67, %19
  %.059 = phi ptr [ %21, %19 ], [ %39, %67 ]
  ret ptr %.059
}